; Function Attrs: uwtable
define noundef double @_ZTv0_n128_NK29colvarbias_restraint_harmonic19restraint_potentialEm(ptr nocapture noundef readonly %0, i64 noundef %1) unnamed_addr #3 align 2 {
  %3 = load ptr, ptr %0, align 8
  %4 = getelementptr inbounds i8, ptr %3, i64 -128
  %5 = load i64, ptr %4, align 8
  %6 = getelementptr inbounds i8, ptr %0, i64 %5
  %7 = load ptr, ptr %6, align 8
  %8 = getelementptr i8, ptr %7, i64 -176
  %9 = load i64, ptr %8, align 8
  %10 = getelementptr inbounds i8, ptr %6, i64 %9
  %11 = getelementptr inbounds i8, ptr %10, i64 8
  %12 = load double, ptr %11, align 8
  %13 = fmul double %12, 5.000000e-01
  %14 = getelementptr i8, ptr %7, i64 -24
  %15 = load i64, ptr %14, align 8
  %16 = getelementptr inbounds i8, ptr %6, i64 %15
  %17 = getelementptr inbounds i8, ptr %16, i64 152
  %sext.i = shl i64 %1, 32
  %18 = ashr exact i64 %sext.i, 32
  %19 = load ptr, ptr %17, align 8
  %20 = getelementptr inbounds ptr, ptr %19, i64 %18
  %21 = load ptr, ptr %20, align 8
  %22 = getelementptr inbounds i8, ptr %21, i64 472
  %23 = load double, ptr %22, align 8
  %24 = fmul double %23, %23
  %25 = fdiv double %13, %24
  %26 = getelementptr inbounds i8, ptr %21, i64 672
  %27 = getelementptr i8, ptr %7, i64 -152
  %28 = load i64, ptr %27, align 8
  %29 = getelementptr inbounds i8, ptr %6, i64 %28
  %30 = getelementptr inbounds i8, ptr %29, i64 8
  %31 = load ptr, ptr %30, align 8
  %32 = getelementptr inbounds %class.colvarvalue, ptr %31, i64 %1
  %33 = tail call noundef double @_ZNK6colvar5dist2ERK11colvarvalueS2_(ptr noundef nonnull align 8 dereferenceable(4624) %21, ptr noundef nonnull align 8 dereferenceable(168) %26, ptr noundef nonnull align 8 dereferenceable(168) %32)
  %34 = fmul double %25, %33
  ret double %34
}